; ModuleID = '36/186.c'
source_filename = "36/186.c"
target datalayout = "e-m:e-p270:32:32-p271:32:32-p272:64:64-i64:64-f80:128-n8:16:32:64-S128"
target triple = "x86_64-pc-linux-gnu"

@.str = private unnamed_addr constant [5 x i8] c"%s%s\00", align 1
@.str.1 = private unnamed_addr constant [3 x i8] c"NO\00", align 1
@.str.2 = private unnamed_addr constant [4 x i8] c"YES\00", align 1

; Function Attrs: noinline nounwind uwtable
define dso_local void @main() #0 {
  %1 = alloca [20 x i8], align 16
  %2 = alloca [20 x i8], align 16
  %3 = alloca i32, align 4
  %4 = alloca i32, align 4
  %5 = alloca i32, align 4
  %6 = alloca i32, align 4
  %7 = getelementptr inbounds [20 x i8], [20 x i8]* %1, i64 0, i64 0
  %8 = getelementptr inbounds [20 x i8], [20 x i8]* %2, i64 0, i64 0
  %9 = call i32 (i8*, ...) @__isoc99_scanf(i8* getelementptr inbounds ([5 x i8], [5 x i8]* @.str, i64 0, i64 0), i8* %7, i8* %8)
  %10 = getelementptr inbounds [20 x i8], [20 x i8]* %1, i64 0, i64 0
  %11 = call i64 @strlen(i8* %10) #3
  %12 = trunc i64 %11 to i32
  store i32 %12, i32* %5, align 4
  %13 = getelementptr inbounds [20 x i8], [20 x i8]* %2, i64 0, i64 0
  %14 = call i64 @strlen(i8* %13) #3
  %15 = trunc i64 %14 to i32
  store i32 %15, i32* %6, align 4
  %16 = load i32, i32* %5, align 4
  %17 = load i32, i32* %6, align 4
  %18 = icmp ne i32 %16, %17
  br i1 %18, label %19, label %21

19:                                               ; preds = %0
  %20 = call i32 (i8*, ...) @printf(i8* getelementptr inbounds ([3 x i8], [3 x i8]* @.str.1, i64 0, i64 0))
  br label %72

21:                                               ; preds = %0
  store i32 0, i32* %3, align 4
  br label %22

22:                                               ; preds = %67, %21
  %23 = load i32, i32* %3, align 4
  %24 = sext i32 %23 to i64
  %25 = getelementptr inbounds [20 x i8], [20 x i8]* %1, i64 0, i64 %24
  %26 = load i8, i8* %25, align 1
  %27 = sext i8 %26 to i32
  %28 = icmp ne i32 %27, 0
  br i1 %28, label %29, label %70

29:                                               ; preds = %22
  store i32 0, i32* %4, align 4
  br label %30

30:                                               ; preds = %54, %29
  %31 = load i32, i32* %4, align 4
  %32 = sext i32 %31 to i64
  %33 = getelementptr inbounds [20 x i8], [20 x i8]* %2, i64 0, i64 %32
  %34 = load i8, i8* %33, align 1
  %35 = sext i8 %34 to i32
  %36 = icmp ne i32 %35, 0
  br i1 %36, label %37, label %57

37:                                               ; preds = %30
  %38 = load i32, i32* %3, align 4
  %39 = sext i32 %38 to i64
  %40 = getelementptr inbounds [20 x i8], [20 x i8]* %1, i64 0, i64 %39
  %41 = load i8, i8* %40, align 1
  %42 = sext i8 %41 to i32
  %43 = load i32, i32* %4, align 4
  %44 = sext i32 %43 to i64
  %45 = getelementptr inbounds [20 x i8], [20 x i8]* %2, i64 0, i64 %44
  %46 = load i8, i8* %45, align 1
  %47 = sext i8 %46 to i32
  %48 = icmp eq i32 %42, %47
  br i1 %48, label %49, label %53

49:                                               ; preds = %37
  %50 = load i32, i32* %4, align 4
  %51 = sext i32 %50 to i64
  %52 = getelementptr inbounds [20 x i8], [20 x i8]* %2, i64 0, i64 %51
  store i8 48, i8* %52, align 1
  br label %57

53:                                               ; preds = %37
  br label %54

54:                                               ; preds = %53
  %55 = load i32, i32* %4, align 4
  %56 = add nsw i32 %55, 1
  store i32 %56, i32* %4, align 4
  br label %30

57:                                               ; preds = %49, %30
  %58 = load i32, i32* %4, align 4
  %59 = sext i32 %58 to i64
  %60 = getelementptr inbounds [20 x i8], [20 x i8]* %2, i64 0, i64 %59
  %61 = load i8, i8* %60, align 1
  %62 = sext i8 %61 to i32
  %63 = icmp eq i32 %62, 0
  br i1 %63, label %64, label %66

64:                                               ; preds = %57
  %65 = call i32 (i8*, ...) @printf(i8* getelementptr inbounds ([3 x i8], [3 x i8]* @.str.1, i64 0, i64 0))
  br label %70

66:                                               ; preds = %57
  br label %67

67:                                               ; preds = %66
  %68 = load i32, i32* %3, align 4
  %69 = add nsw i32 %68, 1
  store i32 %69, i32* %3, align 4
  br label %22

70:                                               ; preds = %64, %22
  %71 = call i32 (i8*, ...) @printf(i8* getelementptr inbounds ([4 x i8], [4 x i8]* @.str.2, i64 0, i64 0))
  br label %72

72:                                               ; preds = %70, %19
  ret void
}

declare dso_local i32 @__isoc99_scanf(i8*, ...) #1

; Function Attrs: nounwind readonly
declare dso_local i64 @strlen(i8*) #2

declare dso_local i32 @printf(i8*, ...) #1


!llvm.module.flags = !{!0}
!llvm.ident = !{!1}

!0 = !{i32 1, !"wchar_size", i32 4}
!1 = !{!"clang version 10.0.0-4ubuntu1 "}
